; ModuleID = '20/593.c'
source_filename = "20/593.c"
target datalayout = "e-m:e-p270:32:32-p271:32:32-p272:64:64-i64:64-f80:128-n8:16:32:64-S128"
target triple = "x86_64-pc-linux-gnu"

@.str = private unnamed_addr constant [5 x i8] c"%s%s\00", align 1
@.str.1 = private unnamed_addr constant [3 x i8] c"%c\00", align 1
@.str.2 = private unnamed_addr constant [2 x i8] c"\0A\00", align 1

; Function Attrs: noinline nounwind uwtable
define dso_local signext i8 @zuida(i8* %0) #0 {
  %2 = alloca i8*, align 8
  %3 = alloca i8, align 1
  %4 = alloca i32, align 4
  %5 = alloca i32, align 4
  store i8* %0, i8** %2, align 8
  store i32 0, i32* %5, align 4
  %6 = load i8*, i8** %2, align 8
  %7 = getelementptr inbounds i8, i8* %6, i64 0
  %8 = load i8, i8* %7, align 1
  store i8 %8, i8* %3, align 1
  store i32 0, i32* %4, align 4
  br label %9

9:                                                ; preds = %35, %1
  %10 = load i8*, i8** %2, align 8
  %11 = load i32, i32* %4, align 4
  %12 = sext i32 %11 to i64
  %13 = getelementptr inbounds i8, i8* %10, i64 %12
  %14 = load i8, i8* %13, align 1
  %15 = sext i8 %14 to i32
  %16 = icmp ne i32 %15, 0
  br i1 %16, label %17, label %38

17:                                               ; preds = %9
  %18 = load i8*, i8** %2, align 8
  %19 = load i32, i32* %4, align 4
  %20 = sext i32 %19 to i64
  %21 = getelementptr inbounds i8, i8* %18, i64 %20
  %22 = load i8, i8* %21, align 1
  %23 = sext i8 %22 to i32
  %24 = load i8, i8* %3, align 1
  %25 = sext i8 %24 to i32
  %26 = icmp sgt i32 %23, %25
  br i1 %26, label %27, label %34

27:                                               ; preds = %17
  %28 = load i8*, i8** %2, align 8
  %29 = load i32, i32* %4, align 4
  %30 = sext i32 %29 to i64
  %31 = getelementptr inbounds i8, i8* %28, i64 %30
  %32 = load i8, i8* %31, align 1
  store i8 %32, i8* %3, align 1
  %33 = load i32, i32* %4, align 4
  store i32 %33, i32* %5, align 4
  br label %34

34:                                               ; preds = %27, %17
  br label %35

35:                                               ; preds = %34
  %36 = load i32, i32* %4, align 4
  %37 = add nsw i32 %36, 1
  store i32 %37, i32* %4, align 4
  br label %9

38:                                               ; preds = %9
  %39 = load i32, i32* %5, align 4
  %40 = trunc i32 %39 to i8
  ret i8 %40
}

; Function Attrs: noinline nounwind uwtable
define dso_local void @main() #0 {
  %1 = alloca [50 x i8], align 16
  %2 = alloca [20 x i8], align 16
  %3 = alloca i32, align 4
  %4 = alloca i32, align 4
  %5 = alloca i32, align 4
  %6 = alloca i32, align 4
  br label %7

7:                                                ; preds = %69, %0
  %8 = getelementptr inbounds [50 x i8], [50 x i8]* %1, i64 0, i64 0
  %9 = getelementptr inbounds [20 x i8], [20 x i8]* %2, i64 0, i64 0
  %10 = call i32 (i8*, ...) @__isoc99_scanf(i8* getelementptr inbounds ([5 x i8], [5 x i8]* @.str, i64 0, i64 0), i8* %8, i8* %9)
  %11 = icmp ne i32 %10, -1
  br i1 %11, label %12, label %71

12:                                               ; preds = %7
  %13 = getelementptr inbounds [50 x i8], [50 x i8]* %1, i64 0, i64 0
  %14 = call i64 @strlen(i8* %13) #3
  %15 = trunc i64 %14 to i32
  store i32 %15, i32* %4, align 4
  %16 = getelementptr inbounds [20 x i8], [20 x i8]* %2, i64 0, i64 0
  %17 = call i64 @strlen(i8* %16) #3
  %18 = trunc i64 %17 to i32
  store i32 %18, i32* %5, align 4
  %19 = getelementptr inbounds [50 x i8], [50 x i8]* %1, i64 0, i64 0
  %20 = call signext i8 @zuida(i8* %19)
  %21 = sext i8 %20 to i32
  store i32 %21, i32* %6, align 4
  store i32 0, i32* %3, align 4
  br label %22

22:                                               ; preds = %34, %12
  %23 = load i32, i32* %3, align 4
  %24 = load i32, i32* %6, align 4
  %25 = add nsw i32 %24, 1
  %26 = icmp slt i32 %23, %25
  br i1 %26, label %27, label %37

27:                                               ; preds = %22
  %28 = load i32, i32* %3, align 4
  %29 = sext i32 %28 to i64
  %30 = getelementptr inbounds [50 x i8], [50 x i8]* %1, i64 0, i64 %29
  %31 = load i8, i8* %30, align 1
  %32 = sext i8 %31 to i32
  %33 = call i32 (i8*, ...) @printf(i8* getelementptr inbounds ([3 x i8], [3 x i8]* @.str.1, i64 0, i64 0), i32 %32)
  br label %34

34:                                               ; preds = %27
  %35 = load i32, i32* %3, align 4
  %36 = add nsw i32 %35, 1
  store i32 %36, i32* %3, align 4
  br label %22

37:                                               ; preds = %22
  store i32 0, i32* %3, align 4
  br label %38

38:                                               ; preds = %49, %37
  %39 = load i32, i32* %3, align 4
  %40 = load i32, i32* %5, align 4
  %41 = icmp slt i32 %39, %40
  br i1 %41, label %42, label %52

42:                                               ; preds = %38
  %43 = load i32, i32* %3, align 4
  %44 = sext i32 %43 to i64
  %45 = getelementptr inbounds [20 x i8], [20 x i8]* %2, i64 0, i64 %44
  %46 = load i8, i8* %45, align 1
  %47 = sext i8 %46 to i32
  %48 = call i32 (i8*, ...) @printf(i8* getelementptr inbounds ([3 x i8], [3 x i8]* @.str.1, i64 0, i64 0), i32 %47)
  br label %49

49:                                               ; preds = %42
  %50 = load i32, i32* %3, align 4
  %51 = add nsw i32 %50, 1
  store i32 %51, i32* %3, align 4
  br label %38

52:                                               ; preds = %38
  %53 = load i32, i32* %6, align 4
  %54 = add nsw i32 %53, 1
  store i32 %54, i32* %3, align 4
  br label %55

55:                                               ; preds = %66, %52
  %56 = load i32, i32* %3, align 4
  %57 = load i32, i32* %4, align 4
  %58 = icmp slt i32 %56, %57
  br i1 %58, label %59, label %69

59:                                               ; preds = %55
  %60 = load i32, i32* %3, align 4
  %61 = sext i32 %60 to i64
  %62 = getelementptr inbounds [50 x i8], [50 x i8]* %1, i64 0, i64 %61
  %63 = load i8, i8* %62, align 1
  %64 = sext i8 %63 to i32
  %65 = call i32 (i8*, ...) @printf(i8* getelementptr inbounds ([3 x i8], [3 x i8]* @.str.1, i64 0, i64 0), i32 %64)
  br label %66

66:                                               ; preds = %59
  %67 = load i32, i32* %3, align 4
  %68 = add nsw i32 %67, 1
  store i32 %68, i32* %3, align 4
  br label %55

69:                                               ; preds = %55
  %70 = call i32 (i8*, ...) @printf(i8* getelementptr inbounds ([2 x i8], [2 x i8]* @.str.2, i64 0, i64 0))
  br label %7

71:                                               ; preds = %7
  ret void
}

declare dso_local i32 @__isoc99_scanf(i8*, ...) #1

; Function Attrs: nounwind readonly
declare dso_local i64 @strlen(i8*) #2

declare dso_local i32 @printf(i8*, ...) #1


!llvm.module.flags = !{!0}
!llvm.ident = !{!1}

!0 = !{i32 1, !"wchar_size", i32 4}
!1 = !{!"clang version 10.0.0-4ubuntu1 "}
